; Function Attrs: nofree nounwind uwtable
define void @Gia_ManMulFindPrintSet(ptr noundef readonly captures(none) %0, i32 noundef %1, i32 noundef %2) local_unnamed_addr #7 {
  %4 = getelementptr i8, ptr %0, i64 4
  %.val = load i32, ptr %4, align 4, !tbaa !33
  %5 = sub i32 %.val, %2
  %putchar = tail call i32 @putchar(i32 123)
  %6 = icmp sgt i32 %5, 0
  br i1 %6, label %.lr.ph, label %.critedge

.lr.ph:                                           ; preds = %3
  %7 = getelementptr i8, ptr %0, i64 8
  %8 = and i32 %1, 1
  %.not19 = icmp ne i32 %1, 0
  %9 = zext i1 %.not19 to i32
  %10 = add nsw i32 %5, -1
  %11 = zext nneg i32 %10 to i64
  %wide.trip.count = zext nneg i32 %5 to i64
  br label %12

12:                                               ; preds = %.lr.ph, %26
  %indvars.iv = phi i64 [ 0, %.lr.ph ], [ %indvars.iv.next, %26 ]
  %.val20 = load ptr, ptr %7, align 8, !tbaa !35
  %13 = getelementptr inbounds nuw i32, ptr %.val20, i64 %indvars.iv
  %14 = load i32, ptr %13, align 4, !tbaa !29
  %15 = icmp eq i32 %14, -1
  br i1 %15, label %16, label %20

16:                                               ; preds = %12
  %17 = icmp samesign ult i64 %indvars.iv, %11
  %18 = select i1 %17, ptr @.str.5, ptr @.str.6
  %19 = tail call i32 (ptr, ...) @printf(ptr noundef nonnull dereferenceable(1) @.str.4, ptr noundef nonnull %18)
  br label %26

20:                                               ; preds = %12
  %21 = and i32 %8, %14
  %.not = icmp eq i32 %21, 0
  %22 = select i1 %.not, ptr @.str.6, ptr @.str.8
  %spec.select = ashr i32 %14, %9
  %23 = icmp samesign ult i64 %indvars.iv, %11
  %24 = select i1 %23, ptr @.str.5, ptr @.str.6
  %25 = tail call i32 (ptr, ...) @printf(ptr noundef nonnull dereferenceable(1) @.str.7, ptr noundef nonnull %22, i32 noundef %spec.select, ptr noundef nonnull %24)
  br label %26

26:                                               ; preds = %16, %20
  %indvars.iv.next = add nuw nsw i64 %indvars.iv, 1
  %exitcond.not = icmp eq i64 %indvars.iv.next, %wide.trip.count
  br i1 %exitcond.not, label %.critedge, label %12, !llvm.loop !169

.critedge:                                        ; preds = %26, %3
  %putchar18 = tail call i32 @putchar(i32 125)
  ret void
}